target datalayout = "e-m:e-p270:32:32-p271:32:32-p272:64:64-i64:64-i128:128-f80:128-n8:16:32:64-S128"
target triple = "x86_64-pc-linux-gnu"

; Function Attrs: nounwind uwtable
define internal void @php_similar_str(ptr noundef %0, i64 noundef %1, ptr noundef %2, i64 noundef %3, ptr noundef %4, ptr noundef %5, ptr noundef %6, ptr noundef %7) #0 {
  %9 = alloca ptr, align 8
  %10 = alloca i64, align 8
  %11 = alloca ptr, align 8
  %12 = alloca i64, align 8
  %13 = alloca ptr, align 8
  %14 = alloca ptr, align 8
  %15 = alloca ptr, align 8
  %16 = alloca ptr, align 8
  %17 = alloca ptr, align 8
  %18 = alloca ptr, align 8
  %19 = alloca ptr, align 8
  %20 = alloca ptr, align 8
  %21 = alloca i64, align 8
  store ptr %0, ptr %9, align 8, !tbaa !10
  store i64 %1, ptr %10, align 8, !tbaa !31
  store ptr %2, ptr %11, align 8, !tbaa !10
  store i64 %3, ptr %12, align 8, !tbaa !31
  store ptr %4, ptr %13, align 8, !tbaa !32
  store ptr %5, ptr %14, align 8, !tbaa !32
  store ptr %6, ptr %15, align 8, !tbaa !32
  store ptr %7, ptr %16, align 8, !tbaa !32
  call void @llvm.lifetime.start.p0(i64 8, ptr %17) #22
  call void @llvm.lifetime.start.p0(i64 8, ptr %18) #22
  call void @llvm.lifetime.start.p0(i64 8, ptr %19) #22
  %22 = load ptr, ptr %9, align 8, !tbaa !10
  %23 = load i64, ptr %10, align 8, !tbaa !31
  %24 = getelementptr inbounds nuw i8, ptr %22, i64 %23
  store ptr %24, ptr %19, align 8, !tbaa !10
  call void @llvm.lifetime.start.p0(i64 8, ptr %20) #22
  %25 = load ptr, ptr %11, align 8, !tbaa !10
  %26 = load i64, ptr %12, align 8, !tbaa !31
  %27 = getelementptr inbounds nuw i8, ptr %25, i64 %26
  store ptr %27, ptr %20, align 8, !tbaa !10
  call void @llvm.lifetime.start.p0(i64 8, ptr %21) #22
  %28 = load ptr, ptr %15, align 8, !tbaa !32
  store i64 0, ptr %28, align 8, !tbaa !31
  %29 = load ptr, ptr %16, align 8, !tbaa !32
  store i64 0, ptr %29, align 8, !tbaa !31
  %30 = load ptr, ptr %9, align 8, !tbaa !10
  store ptr %30, ptr %17, align 8, !tbaa !10
  br label %31

31:                                               ; preds = %100, %8
  %32 = load ptr, ptr %17, align 8, !tbaa !10
  %33 = load ptr, ptr %19, align 8, !tbaa !10
  %34 = icmp ult ptr %32, %33
  br i1 %34, label %35, label %103

35:                                               ; preds = %31
  %36 = load ptr, ptr %11, align 8, !tbaa !10
  store ptr %36, ptr %18, align 8, !tbaa !10
  br label %37

37:                                               ; preds = %96, %35
  %38 = load ptr, ptr %18, align 8, !tbaa !10
  %39 = load ptr, ptr %20, align 8, !tbaa !10
  %40 = icmp ult ptr %38, %39
  br i1 %40, label %41, label %99

41:                                               ; preds = %37
  store i64 0, ptr %21, align 8, !tbaa !31
  br label %42

42:                                               ; preds = %69, %41
  %43 = load ptr, ptr %17, align 8, !tbaa !10
  %44 = load i64, ptr %21, align 8, !tbaa !31
  %45 = getelementptr inbounds nuw i8, ptr %43, i64 %44
  %46 = load ptr, ptr %19, align 8, !tbaa !10
  %47 = icmp ult ptr %45, %46
  br i1 %47, label %48, label %66

48:                                               ; preds = %42
  %49 = load ptr, ptr %18, align 8, !tbaa !10
  %50 = load i64, ptr %21, align 8, !tbaa !31
  %51 = getelementptr inbounds nuw i8, ptr %49, i64 %50
  %52 = load ptr, ptr %20, align 8, !tbaa !10
  %53 = icmp ult ptr %51, %52
  br i1 %53, label %54, label %66

54:                                               ; preds = %48
  %55 = load ptr, ptr %17, align 8, !tbaa !10
  %56 = load i64, ptr %21, align 8, !tbaa !31
  %57 = getelementptr inbounds nuw i8, ptr %55, i64 %56
  %58 = load i8, ptr %57, align 1, !tbaa !12
  %59 = sext i8 %58 to i32
  %60 = load ptr, ptr %18, align 8, !tbaa !10
  %61 = load i64, ptr %21, align 8, !tbaa !31
  %62 = getelementptr inbounds nuw i8, ptr %60, i64 %61
  %63 = load i8, ptr %62, align 1, !tbaa !12
  %64 = sext i8 %63 to i32
  %65 = icmp eq i32 %59, %64
  br label %66

66:                                               ; preds = %54, %48, %42
  %67 = phi i1 [ false, %48 ], [ false, %42 ], [ %65, %54 ]
  br i1 %67, label %68, label %72

68:                                               ; preds = %66
  br label %69

69:                                               ; preds = %68
  %70 = load i64, ptr %21, align 8, !tbaa !31
  %71 = add i64 %70, 1
  store i64 %71, ptr %21, align 8, !tbaa !31
  br label %42

72:                                               ; preds = %66
  %73 = load i64, ptr %21, align 8, !tbaa !31
  %74 = load ptr, ptr %15, align 8, !tbaa !32
  %75 = load i64, ptr %74, align 8, !tbaa !31
  %76 = icmp ugt i64 %73, %75
  br i1 %76, label %77, label %95

77:                                               ; preds = %72
  %78 = load i64, ptr %21, align 8, !tbaa !31
  %79 = load ptr, ptr %15, align 8, !tbaa !32
  store i64 %78, ptr %79, align 8, !tbaa !31
  %80 = load ptr, ptr %16, align 8, !tbaa !32
  %81 = load i64, ptr %80, align 8, !tbaa !31
  %82 = add i64 %81, 1
  store i64 %82, ptr %80, align 8, !tbaa !31
  %83 = load ptr, ptr %17, align 8, !tbaa !10
  %84 = load ptr, ptr %9, align 8, !tbaa !10
  %85 = ptrtoint ptr %83 to i64
  %86 = ptrtoint ptr %84 to i64
  %87 = sub i64 %85, %86
  %88 = load ptr, ptr %13, align 8, !tbaa !32
  store i64 %87, ptr %88, align 8, !tbaa !31
  %89 = load ptr, ptr %18, align 8, !tbaa !10
  %90 = load ptr, ptr %11, align 8, !tbaa !10
  %91 = ptrtoint ptr %89 to i64
  %92 = ptrtoint ptr %90 to i64
  %93 = sub i64 %91, %92
  %94 = load ptr, ptr %14, align 8, !tbaa !32
  store i64 %93, ptr %94, align 8, !tbaa !31
  br label %95

95:                                               ; preds = %77, %72
  br label %96

96:                                               ; preds = %95
  %97 = load ptr, ptr %18, align 8, !tbaa !10
  %98 = getelementptr inbounds nuw i8, ptr %97, i32 1
  store ptr %98, ptr %18, align 8, !tbaa !10
  br label %37

99:                                               ; preds = %37
  br label %100

100:                                              ; preds = %99
  %101 = load ptr, ptr %17, align 8, !tbaa !10
  %102 = getelementptr inbounds nuw i8, ptr %101, i32 1
  store ptr %102, ptr %17, align 8, !tbaa !10
  br label %31

103:                                              ; preds = %31
  call void @llvm.lifetime.end.p0(i64 8, ptr %21) #22
  call void @llvm.lifetime.end.p0(i64 8, ptr %20) #22
  call void @llvm.lifetime.end.p0(i64 8, ptr %19) #22
  call void @llvm.lifetime.end.p0(i64 8, ptr %18) #22
  call void @llvm.lifetime.end.p0(i64 8, ptr %17) #22
  ret void
}

; Function Attrs: nounwind uwtable
define internal i64 @php_similar_char(ptr noundef %0, i64 noundef %1, ptr noundef %2, i64 noundef %3) #0 {
  %5 = alloca ptr, align 8
  %6 = alloca i64, align 8
  %7 = alloca ptr, align 8
  %8 = alloca i64, align 8
  %9 = alloca i64, align 8
  %10 = alloca i64, align 8
  %11 = alloca i64, align 8
  %12 = alloca i64, align 8
  %13 = alloca i64, align 8
  store ptr %0, ptr %5, align 8, !tbaa !10
  store i64 %1, ptr %6, align 8, !tbaa !31
  store ptr %2, ptr %7, align 8, !tbaa !10
  store i64 %3, ptr %8, align 8, !tbaa !31
  call void @llvm.lifetime.start.p0(i64 8, ptr %9) #22
  call void @llvm.lifetime.start.p0(i64 8, ptr %10) #22
  store i64 0, ptr %10, align 8, !tbaa !31
  call void @llvm.lifetime.start.p0(i64 8, ptr %11) #22
  store i64 0, ptr %11, align 8, !tbaa !31
  call void @llvm.lifetime.start.p0(i64 8, ptr %12) #22
  call void @llvm.lifetime.start.p0(i64 8, ptr %13) #22
  %14 = load ptr, ptr %5, align 8, !tbaa !10
  %15 = load i64, ptr %6, align 8, !tbaa !31
  %16 = load ptr, ptr %7, align 8, !tbaa !10
  %17 = load i64, ptr %8, align 8, !tbaa !31
  call void @php_similar_str(ptr noundef %14, i64 noundef %15, ptr noundef %16, i64 noundef %17, ptr noundef %10, ptr noundef %11, ptr noundef %12, ptr noundef %13)
  %18 = load i64, ptr %12, align 8, !tbaa !31
  store i64 %18, ptr %9, align 8, !tbaa !31
  %19 = icmp ne i64 %18, 0
  br i1 %19, label %20, label %74

20:                                               ; preds = %4
  %21 = load i64, ptr %10, align 8, !tbaa !31
  %22 = icmp ne i64 %21, 0
  br i1 %22, label %23, label %37

23:                                               ; preds = %20
  %24 = load i64, ptr %11, align 8, !tbaa !31
  %25 = icmp ne i64 %24, 0
  br i1 %25, label %26, label %37

26:                                               ; preds = %23
  %27 = load i64, ptr %13, align 8, !tbaa !31
  %28 = icmp ugt i64 %27, 1
  br i1 %28, label %29, label %37

29:                                               ; preds = %26
  %30 = load ptr, ptr %5, align 8, !tbaa !10
  %31 = load i64, ptr %10, align 8, !tbaa !31
  %32 = load ptr, ptr %7, align 8, !tbaa !10
  %33 = load i64, ptr %11, align 8, !tbaa !31
  %34 = call i64 @php_similar_char(ptr noundef %30, i64 noundef %31, ptr noundef %32, i64 noundef %33)
  %35 = load i64, ptr %9, align 8, !tbaa !31
  %36 = add i64 %35, %34
  store i64 %36, ptr %9, align 8, !tbaa !31
  br label %37

37:                                               ; preds = %29, %26, %23, %20
  %38 = load i64, ptr %10, align 8, !tbaa !31
  %39 = load i64, ptr %12, align 8, !tbaa !31
  %40 = add i64 %38, %39
  %41 = load i64, ptr %6, align 8, !tbaa !31
  %42 = icmp ult i64 %40, %41
  br i1 %42, label %43, label %73

43:                                               ; preds = %37
  %44 = load i64, ptr %11, align 8, !tbaa !31
  %45 = load i64, ptr %12, align 8, !tbaa !31
  %46 = add i64 %44, %45
  %47 = load i64, ptr %8, align 8, !tbaa !31
  %48 = icmp ult i64 %46, %47
  br i1 %48, label %49, label %73

49:                                               ; preds = %43
  %50 = load ptr, ptr %5, align 8, !tbaa !10
  %51 = load i64, ptr %10, align 8, !tbaa !31
  %52 = getelementptr inbounds nuw i8, ptr %50, i64 %51
  %53 = load i64, ptr %12, align 8, !tbaa !31
  %54 = getelementptr inbounds nuw i8, ptr %52, i64 %53
  %55 = load i64, ptr %6, align 8, !tbaa !31
  %56 = load i64, ptr %10, align 8, !tbaa !31
  %57 = sub i64 %55, %56
  %58 = load i64, ptr %12, align 8, !tbaa !31
  %59 = sub i64 %57, %58
  %60 = load ptr, ptr %7, align 8, !tbaa !10
  %61 = load i64, ptr %11, align 8, !tbaa !31
  %62 = getelementptr inbounds nuw i8, ptr %60, i64 %61
  %63 = load i64, ptr %12, align 8, !tbaa !31
  %64 = getelementptr inbounds nuw i8, ptr %62, i64 %63
  %65 = load i64, ptr %8, align 8, !tbaa !31
  %66 = load i64, ptr %11, align 8, !tbaa !31
  %67 = sub i64 %65, %66
  %68 = load i64, ptr %12, align 8, !tbaa !31
  %69 = sub i64 %67, %68
  %70 = call i64 @php_similar_char(ptr noundef %54, i64 noundef %59, ptr noundef %64, i64 noundef %69)
  %71 = load i64, ptr %9, align 8, !tbaa !31
  %72 = add i64 %71, %70
  store i64 %72, ptr %9, align 8, !tbaa !31
  br label %73

73:                                               ; preds = %49, %43, %37
  br label %74

74:                                               ; preds = %73, %4
  %75 = load i64, ptr %9, align 8, !tbaa !31
  call void @llvm.lifetime.end.p0(i64 8, ptr %13) #22
  call void @llvm.lifetime.end.p0(i64 8, ptr %12) #22
  call void @llvm.lifetime.end.p0(i64 8, ptr %11) #22
  call void @llvm.lifetime.end.p0(i64 8, ptr %10) #22
  call void @llvm.lifetime.end.p0(i64 8, ptr %9) #22
  ret i64 %75
}