; Function Attrs: nofree nosync nounwind memory(argmem: read) uwtable
define internal fastcc i64 @php_similar_char(ptr noundef %0, i64 noundef %1, ptr noundef %2, i64 noundef %3) unnamed_addr #16 {
  %.not.i56 = icmp eq i64 %1, 0
  br i1 %.not.i56, label %php_similar_str.exit.thread, label %.preheader41.lr.ph.i.preheader

.preheader41.lr.ph.i.preheader:                   ; preds = %4
  %5 = getelementptr inbounds nuw i8, ptr %2, i64 %3
  %6 = getelementptr inbounds nuw i8, ptr %0, i64 %1
  br label %.preheader41.lr.ph.i

.preheader41.lr.ph.i:                             ; preds = %.preheader41.lr.ph.i.preheader, %tailrecurse
  %7 = phi ptr [ %55, %tailrecurse ], [ %5, %.preheader41.lr.ph.i.preheader ]
  %8 = phi ptr [ %54, %tailrecurse ], [ %6, %.preheader41.lr.ph.i.preheader ]
  %.tr5561 = phi i64 [ %52, %tailrecurse ], [ %3, %.preheader41.lr.ph.i.preheader ]
  %.tr5460 = phi ptr [ %51, %tailrecurse ], [ %2, %.preheader41.lr.ph.i.preheader ]
  %.tr5359 = phi i64 [ %49, %tailrecurse ], [ %1, %.preheader41.lr.ph.i.preheader ]
  %.tr58 = phi ptr [ %48, %tailrecurse ], [ %0, %.preheader41.lr.ph.i.preheader ]
  %accumulator.tr57 = phi i64 [ %53, %tailrecurse ], [ 0, %.preheader41.lr.ph.i.preheader ]
  %.not55.i = icmp eq i64 %.tr5561, 0
  %9 = ptrtoint ptr %.tr58 to i64
  %10 = ptrtoint ptr %.tr5460 to i64
  br i1 %.not55.i, label %php_similar_str.exit.thread.loopexit, label %.preheader41.us.i

.preheader41.us.i:                                ; preds = %.preheader41.lr.ph.i, %._crit_edge.us.i
  %.043 = phi i64 [ %.144, %._crit_edge.us.i ], [ 0, %.preheader41.lr.ph.i ]
  %.038 = phi i64 [ %.139, %._crit_edge.us.i ], [ 0, %.preheader41.lr.ph.i ]
  %.033 = phi i64 [ %.134, %._crit_edge.us.i ], [ 0, %.preheader41.lr.ph.i ]
  %.031 = phi i64 [ %.132, %._crit_edge.us.i ], [ 0, %.preheader41.lr.ph.i ]
  %indvars.iv.i = phi i64 [ %indvars.iv.next.i, %._crit_edge.us.i ], [ %.tr5359, %.preheader41.lr.ph.i ]
  %.03548.us.i = phi ptr [ %14, %._crit_edge.us.i ], [ %.tr58, %.preheader41.lr.ph.i ]
  %11 = icmp ult ptr %.03548.us.i, %8
  %12 = ptrtoint ptr %.03548.us.i to i64
  %13 = sub i64 %12, %9
  br i1 %11, label %.preheader.us.us.i, label %._crit_edge.us.i

._crit_edge.us.i:                                 ; preds = %29, %.preheader41.us.i
  %.144 = phi i64 [ %.043, %.preheader41.us.i ], [ %.346, %29 ]
  %.139 = phi i64 [ %.038, %.preheader41.us.i ], [ %.341, %29 ]
  %.134 = phi i64 [ %.033, %.preheader41.us.i ], [ %.336, %29 ]
  %.132 = phi i64 [ %.031, %.preheader41.us.i ], [ %.3, %29 ]
  %14 = getelementptr inbounds nuw i8, ptr %.03548.us.i, i64 1
  %15 = icmp ult ptr %14, %8
  %indvars.iv.next.i = add i64 %indvars.iv.i, -1
  br i1 %15, label %.preheader41.us.i, label %php_similar_str.exit

.preheader.us.us.i:                               ; preds = %.preheader41.us.i, %29
  %.245 = phi i64 [ %.346, %29 ], [ %.043, %.preheader41.us.i ]
  %.240 = phi i64 [ %.341, %29 ], [ %.038, %.preheader41.us.i ]
  %.235 = phi i64 [ %.336, %29 ], [ %.033, %.preheader41.us.i ]
  %.2 = phi i64 [ %.3, %29 ], [ %.031, %.preheader41.us.i ]
  %.03647.us.us.i = phi ptr [ %30, %29 ], [ %.tr5460, %.preheader41.us.i ]
  br label %16

16:                                               ; preds = %32, %.preheader.us.us.i
  %.042.us.us.i = phi i64 [ 0, %.preheader.us.us.i ], [ %33, %32 ]
  %17 = getelementptr inbounds nuw i8, ptr %.03647.us.us.i, i64 %.042.us.us.i
  %18 = icmp ult ptr %17, %7
  br i1 %18, label %19, label %.critedge.us.us.i

19:                                               ; preds = %16
  %20 = getelementptr inbounds nuw i8, ptr %.03548.us.i, i64 %.042.us.us.i
  %21 = load i8, ptr %20, align 1, !tbaa !10
  %22 = load i8, ptr %17, align 1, !tbaa !10
  %23 = icmp eq i8 %21, %22
  br i1 %23, label %32, label %.critedge.us.us.i

.critedge.us.us.i:                                ; preds = %32, %19, %16
  %.0.lcssa.us.us.i = phi i64 [ %.042.us.us.i, %16 ], [ %indvars.iv.i, %32 ], [ %.042.us.us.i, %19 ]
  %24 = icmp ugt i64 %.0.lcssa.us.us.i, %.235
  br i1 %24, label %25, label %29

25:                                               ; preds = %.critedge.us.us.i
  %26 = add i64 %.2, 1
  %27 = ptrtoint ptr %.03647.us.us.i to i64
  %28 = sub i64 %27, %10
  br label %29

29:                                               ; preds = %25, %.critedge.us.us.i
  %.346 = phi i64 [ %13, %25 ], [ %.245, %.critedge.us.us.i ]
  %.341 = phi i64 [ %28, %25 ], [ %.240, %.critedge.us.us.i ]
  %.336 = phi i64 [ %.0.lcssa.us.us.i, %25 ], [ %.235, %.critedge.us.us.i ]
  %.3 = phi i64 [ %26, %25 ], [ %.2, %.critedge.us.us.i ]
  %30 = getelementptr inbounds nuw i8, ptr %.03647.us.us.i, i64 1
  %31 = icmp ult ptr %30, %7
  br i1 %31, label %.preheader.us.us.i, label %._crit_edge.us.i

32:                                               ; preds = %19
  %33 = add i64 %.042.us.us.i, 1
  %exitcond.not.i = icmp eq i64 %33, %indvars.iv.i
  br i1 %exitcond.not.i, label %.critedge.us.us.i, label %16

php_similar_str.exit:                             ; preds = %._crit_edge.us.i
  %.not = icmp eq i64 %.134, 0
  br i1 %.not, label %php_similar_str.exit.thread.loopexit, label %34

34:                                               ; preds = %php_similar_str.exit
  %35 = icmp ne i64 %.144, 0
  %36 = icmp ne i64 %.139, 0
  %or.cond = select i1 %35, i1 %36, i1 false
  %37 = icmp ugt i64 %.132, 1
  %or.cond3 = select i1 %or.cond, i1 %37, i1 false
  br i1 %or.cond3, label %38, label %41

38:                                               ; preds = %34
  %39 = tail call fastcc i64 @php_similar_char(ptr noundef %.tr58, i64 noundef %.144, ptr noundef %.tr5460, i64 noundef %.139)
  %40 = add i64 %39, %.134
  br label %41

41:                                               ; preds = %38, %34
  %.1 = phi i64 [ %40, %38 ], [ %.134, %34 ]
  %42 = add i64 %.134, %.144
  %43 = icmp ult i64 %42, %.tr5359
  br i1 %43, label %44, label %php_similar_str.exit.thread.loopexit

44:                                               ; preds = %41
  %45 = add i64 %.134, %.139
  %46 = icmp ult i64 %45, %.tr5561
  br i1 %46, label %tailrecurse, label %php_similar_str.exit.thread.loopexit

tailrecurse:                                      ; preds = %44
  %47 = getelementptr inbounds nuw i8, ptr %.tr58, i64 %.144
  %48 = getelementptr inbounds nuw i8, ptr %47, i64 %.134
  %49 = sub i64 %.tr5359, %42
  %50 = getelementptr inbounds nuw i8, ptr %.tr5460, i64 %.139
  %51 = getelementptr inbounds nuw i8, ptr %50, i64 %.134
  %52 = sub nuw i64 %.tr5561, %45
  %53 = add i64 %.1, %accumulator.tr57
  %54 = getelementptr inbounds nuw i8, ptr %48, i64 %49
  %55 = getelementptr inbounds nuw i8, ptr %51, i64 %52
  %.not.i = icmp eq i64 %49, 0
  br i1 %.not.i, label %php_similar_str.exit.thread.loopexit, label %.preheader41.lr.ph.i

php_similar_str.exit.thread.loopexit:             ; preds = %.preheader41.lr.ph.i, %tailrecurse, %41, %44, %php_similar_str.exit
  %accumulator.tr.lcssa.ph = phi i64 [ %accumulator.tr57, %php_similar_str.exit ], [ %accumulator.tr57, %44 ], [ %accumulator.tr57, %41 ], [ %53, %tailrecurse ], [ %accumulator.tr57, %.preheader41.lr.ph.i ]
  %.0.ph = phi i64 [ 0, %php_similar_str.exit ], [ %.1, %44 ], [ %.1, %41 ], [ 0, %tailrecurse ], [ 0, %.preheader41.lr.ph.i ]
  %56 = add i64 %.0.ph, %accumulator.tr.lcssa.ph
  br label %php_similar_str.exit.thread

php_similar_str.exit.thread:                      ; preds = %php_similar_str.exit.thread.loopexit, %4
  %accumulator.ret.tr = phi i64 [ 0, %4 ], [ %56, %php_similar_str.exit.thread.loopexit ]
  ret i64 %accumulator.ret.tr
}